; ModuleID = 'source-C-CXX/56/3066.c'
source_filename = "source-C-CXX/56/3066.c"
target datalayout = "e-m:e-p270:32:32-p271:32:32-p272:64:64-i64:64-f80:128-n8:16:32:64-S128"
target triple = "x86_64-pc-linux-gnu"

@.str = private unnamed_addr constant [4 x i8] c"%d\0A\00", align 1

; Function Attrs: nounwind sspstrong uwtable
define dso_local void @main() local_unnamed_addr #0 {
  %1 = alloca i32, align 4
  %2 = alloca [51 x [20 x i8]], align 16
  %3 = bitcast i32* %1 to i8*
  call void @llvm.lifetime.start.p0i8(i64 4, i8* nonnull %3) #7
  %4 = getelementptr inbounds [51 x [20 x i8]], [51 x [20 x i8]]* %2, i64 0, i64 0, i64 0
  call void @llvm.lifetime.start.p0i8(i64 1020, i8* nonnull %4) #7
  %5 = call i32 (i8*, ...) @__isoc99_scanf(i8* getelementptr inbounds ([4 x i8], [4 x i8]* @.str, i64 0, i64 0), i32* nonnull %1)
  %6 = load i32, i32* %1, align 4, !tbaa !5
  %7 = icmp sgt i32 %6, 0
  br i1 %7, label %10, label %95

8:                                                ; preds = %10
  %9 = icmp sgt i32 %15, 0
  br i1 %9, label %18, label %95

10:                                               ; preds = %0, %10
  %11 = phi i64 [ %14, %10 ], [ 0, %0 ]
  %12 = getelementptr inbounds [51 x [20 x i8]], [51 x [20 x i8]]* %2, i64 0, i64 %11, i64 0
  %13 = call i32 (i8*, ...) bitcast (i32 (...)* @gets to i32 (i8*, ...)*)(i8* nonnull %12) #7
  %14 = add nuw nsw i64 %11, 1
  %15 = load i32, i32* %1, align 4, !tbaa !5
  %16 = sext i32 %15 to i64
  %17 = icmp slt i64 %14, %16
  br i1 %17, label %10, label %8, !llvm.loop !9

18:                                               ; preds = %8, %89
  %19 = phi i64 [ %91, %89 ], [ 0, %8 ]
  %20 = getelementptr inbounds [51 x [20 x i8]], [51 x [20 x i8]]* %2, i64 0, i64 %19, i64 0
  %21 = call i64 @strlen(i8* noundef nonnull %20) #8
  %22 = trunc i64 %21 to i32
  %23 = shl i64 %21, 32
  %24 = add i64 %23, -4294967296
  %25 = ashr exact i64 %24, 32
  %26 = getelementptr inbounds [51 x [20 x i8]], [51 x [20 x i8]]* %2, i64 0, i64 %19, i64 %25
  %27 = load i8, i8* %26, align 1, !tbaa !11
  switch i8 %27, label %89 [
    i8 121, label %28
    i8 103, label %46
    i8 114, label %70
  ]

28:                                               ; preds = %18
  %29 = add i32 %22, -2
  %30 = sext i32 %29 to i64
  %31 = getelementptr inbounds [51 x [20 x i8]], [51 x [20 x i8]]* %2, i64 0, i64 %19, i64 %30
  %32 = load i8, i8* %31, align 1, !tbaa !11
  %33 = icmp eq i8 %32, 108
  %34 = icmp sgt i32 %22, 2
  %35 = select i1 %33, i1 %34, i1 false
  br i1 %35, label %36, label %89

36:                                               ; preds = %28
  %37 = zext i32 %29 to i64
  br label %38

38:                                               ; preds = %36, %38
  %39 = phi i64 [ 0, %36 ], [ %44, %38 ]
  %40 = getelementptr inbounds [51 x [20 x i8]], [51 x [20 x i8]]* %2, i64 0, i64 %19, i64 %39
  %41 = load i8, i8* %40, align 1, !tbaa !11
  %42 = sext i8 %41 to i32
  %43 = call i32 @putchar(i32 %42)
  %44 = add nuw nsw i64 %39, 1
  %45 = icmp eq i64 %44, %37
  br i1 %45, label %89, label %38, !llvm.loop !12

46:                                               ; preds = %18
  %47 = add i64 %23, -8589934592
  %48 = ashr exact i64 %47, 32
  %49 = getelementptr inbounds [51 x [20 x i8]], [51 x [20 x i8]]* %2, i64 0, i64 %19, i64 %48
  %50 = load i8, i8* %49, align 1, !tbaa !11
  %51 = icmp eq i8 %50, 110
  br i1 %51, label %52, label %89

52:                                               ; preds = %46
  %53 = add i32 %22, -3
  %54 = sext i32 %53 to i64
  %55 = getelementptr inbounds [51 x [20 x i8]], [51 x [20 x i8]]* %2, i64 0, i64 %19, i64 %54
  %56 = load i8, i8* %55, align 1, !tbaa !11
  %57 = icmp eq i8 %56, 105
  %58 = icmp sgt i32 %22, 3
  %59 = select i1 %57, i1 %58, i1 false
  br i1 %59, label %60, label %89

60:                                               ; preds = %52
  %61 = zext i32 %53 to i64
  br label %62

62:                                               ; preds = %60, %62
  %63 = phi i64 [ 0, %60 ], [ %68, %62 ]
  %64 = getelementptr inbounds [51 x [20 x i8]], [51 x [20 x i8]]* %2, i64 0, i64 %19, i64 %63
  %65 = load i8, i8* %64, align 1, !tbaa !11
  %66 = sext i8 %65 to i32
  %67 = call i32 @putchar(i32 %66)
  %68 = add nuw nsw i64 %63, 1
  %69 = icmp eq i64 %68, %61
  br i1 %69, label %89, label %62, !llvm.loop !13

70:                                               ; preds = %18
  %71 = shl i64 %21, 32
  %72 = add i64 %71, -8589934592
  %73 = ashr exact i64 %72, 32
  %74 = getelementptr inbounds [51 x [20 x i8]], [51 x [20 x i8]]* %2, i64 0, i64 %19, i64 %73
  %75 = load i8, i8* %74, align 1, !tbaa !11
  %76 = icmp eq i8 %75, 101
  %77 = icmp sgt i32 %22, 2
  %78 = select i1 %76, i1 %77, i1 false
  br i1 %78, label %79, label %89

79:                                               ; preds = %70
  %80 = call i64 @llvm.smax.i64(i64 %73, i64 1)
  br label %81

81:                                               ; preds = %79, %81
  %82 = phi i64 [ 0, %79 ], [ %87, %81 ]
  %83 = getelementptr inbounds [51 x [20 x i8]], [51 x [20 x i8]]* %2, i64 0, i64 %19, i64 %82
  %84 = load i8, i8* %83, align 1, !tbaa !11
  %85 = sext i8 %84 to i32
  %86 = call i32 @putchar(i32 %85)
  %87 = add nuw nsw i64 %82, 1
  %88 = icmp eq i64 %87, %80
  br i1 %88, label %89, label %81, !llvm.loop !14

89:                                               ; preds = %81, %62, %38, %18, %28, %46, %52, %70
  %90 = call i32 @putchar(i32 10)
  %91 = add nuw nsw i64 %19, 1
  %92 = load i32, i32* %1, align 4, !tbaa !5
  %93 = sext i32 %92 to i64
  %94 = icmp slt i64 %91, %93
  br i1 %94, label %18, label %95, !llvm.loop !15

95:                                               ; preds = %89, %0, %8
  call void @llvm.lifetime.end.p0i8(i64 1020, i8* nonnull %4) #7
  call void @llvm.lifetime.end.p0i8(i64 4, i8* nonnull %3) #7
  ret void
}

; Function Attrs: argmemonly mustprogress nofree nosync nounwind willreturn
declare void @llvm.lifetime.start.p0i8(i64 immarg, i8* nocapture) #1

; Function Attrs: nofree nounwind
declare noundef i32 @__isoc99_scanf(i8* nocapture noundef readonly, ...) local_unnamed_addr #2

declare i32 @gets(...) local_unnamed_addr #3

; Function Attrs: argmemonly mustprogress nofree nounwind readonly willreturn
declare i64 @strlen(i8* nocapture) local_unnamed_addr #4

; Function Attrs: argmemonly mustprogress nofree nosync nounwind willreturn
declare void @llvm.lifetime.end.p0i8(i64 immarg, i8* nocapture) #1

; Function Attrs: nofree nounwind
declare noundef i32 @putchar(i32 noundef) local_unnamed_addr #5

; Function Attrs: nofree nosync nounwind readnone speculatable willreturn
declare i64 @llvm.smax.i64(i64, i64) #6


!llvm.module.flags = !{!0, !1, !2, !3}
!llvm.ident = !{!4}

!0 = !{i32 1, !"wchar_size", i32 4}
!1 = !{i32 7, !"PIC Level", i32 2}
!2 = !{i32 7, !"PIE Level", i32 2}
!3 = !{i32 7, !"uwtable", i32 1}
!4 = !{!"clang version 13.0.0"}
!5 = !{!6, !6, i64 0}
!6 = !{!"int", !7, i64 0}
!7 = !{!"omnipotent char", !8, i64 0}
!8 = !{!"Simple C/C++ TBAA"}
!9 = distinct !{!9, !10}
!10 = !{!"llvm.loop.mustprogress"}
!11 = !{!7, !7, i64 0}
!12 = distinct !{!12, !10}
!13 = distinct !{!13, !10}
!14 = distinct !{!14, !10}
!15 = distinct !{!15, !10}
